target datalayout = "e-m:e-p270:32:32-p271:32:32-p272:64:64-i64:64-i128:128-f80:128-n8:16:32:64-S128"
target triple = "x86_64-pc-linux-gnu"

; Function Attrs: nounwind uwtable
define internal i32 @chachapoly_setkey_wrap(ptr noundef %0, ptr noundef %1, i32 noundef %2) #0 {
  %4 = alloca i32, align 4
  %5 = alloca ptr, align 8
  %6 = alloca ptr, align 8
  %7 = alloca i32, align 4
  store ptr %0, ptr %5, align 8, !tbaa !3
  store ptr %1, ptr %6, align 8, !tbaa !9
  store i32 %2, ptr %7, align 4, !tbaa !7
  %8 = load i32, ptr %7, align 4, !tbaa !7
  %9 = icmp ne i32 %8, 256
  br i1 %9, label %10, label %11

10:                                               ; preds = %3
  store i32 -24832, ptr %4, align 4
  br label %18

11:                                               ; preds = %3
  %12 = load ptr, ptr %5, align 8, !tbaa !3
  %13 = load ptr, ptr %6, align 8, !tbaa !9
  %14 = call i32 @mbedtls_chachapoly_setkey(ptr noundef %12, ptr noundef %13)
  %15 = icmp ne i32 0, %14
  br i1 %15, label %16, label %17

16:                                               ; preds = %11
  store i32 -24832, ptr %4, align 4
  br label %18

17:                                               ; preds = %11
  store i32 0, ptr %4, align 4
  br label %18

18:                                               ; preds = %17, %16, %10
  %19 = load i32, ptr %4, align 4
  ret i32 %19
}